; ModuleID = '9/1123.c'
source_filename = "9/1123.c"
target datalayout = "e-m:e-p270:32:32-p271:32:32-p272:64:64-i64:64-f80:128-n8:16:32:64-S128"
target triple = "x86_64-pc-linux-gnu"

@.str = private unnamed_addr constant [3 x i8] c"%d\00", align 1
@.str.1 = private unnamed_addr constant [3 x i8] c"%s\00", align 1
@.str.2 = private unnamed_addr constant [4 x i8] c"%s\0A\00", align 1

; Function Attrs: noinline nounwind uwtable
define dso_local i32 @main() #0 {
  %1 = alloca i32, align 4
  %2 = alloca i32, align 4
  %3 = alloca [100 x i32], align 16
  %4 = alloca [100 x i32], align 16
  %5 = alloca [100 x i32], align 16
  %6 = alloca [100 x [20 x i8]], align 16
  %7 = alloca i32, align 4
  %8 = alloca i32, align 4
  %9 = alloca i32, align 4
  %10 = alloca i32, align 4
  %11 = alloca i32, align 4
  store i32 0, i32* %1, align 4
  %12 = call i32 (i8*, ...) @__isoc99_scanf(i8* getelementptr inbounds ([3 x i8], [3 x i8]* @.str, i64 0, i64 0), i32* %2)
  store i32 0, i32* %8, align 4
  store i32 0, i32* %9, align 4
  store i32 0, i32* %7, align 4
  br label %13

13:                                               ; preds = %27, %0
  %14 = load i32, i32* %7, align 4
  %15 = load i32, i32* %2, align 4
  %16 = icmp slt i32 %14, %15
  br i1 %16, label %17, label %30

17:                                               ; preds = %13
  %18 = load i32, i32* %7, align 4
  %19 = sext i32 %18 to i64
  %20 = getelementptr inbounds [100 x [20 x i8]], [100 x [20 x i8]]* %6, i64 0, i64 %19
  %21 = getelementptr inbounds [20 x i8], [20 x i8]* %20, i64 0, i64 0
  %22 = call i32 (i8*, ...) @__isoc99_scanf(i8* getelementptr inbounds ([3 x i8], [3 x i8]* @.str.1, i64 0, i64 0), i8* %21)
  %23 = load i32, i32* %7, align 4
  %24 = sext i32 %23 to i64
  %25 = getelementptr inbounds [100 x i32], [100 x i32]* %3, i64 0, i64 %24
  %26 = call i32 (i8*, ...) @__isoc99_scanf(i8* getelementptr inbounds ([3 x i8], [3 x i8]* @.str, i64 0, i64 0), i32* %25)
  br label %27

27:                                               ; preds = %17
  %28 = load i32, i32* %7, align 4
  %29 = add nsw i32 %28, 1
  store i32 %29, i32* %7, align 4
  br label %13

30:                                               ; preds = %13
  store i32 0, i32* %7, align 4
  br label %31

31:                                               ; preds = %56, %30
  %32 = load i32, i32* %7, align 4
  %33 = load i32, i32* %2, align 4
  %34 = icmp slt i32 %32, %33
  br i1 %34, label %35, label %59

35:                                               ; preds = %31
  %36 = load i32, i32* %7, align 4
  %37 = sext i32 %36 to i64
  %38 = getelementptr inbounds [100 x i32], [100 x i32]* %3, i64 0, i64 %37
  %39 = load i32, i32* %38, align 4
  %40 = icmp sge i32 %39, 60
  br i1 %40, label %41, label %48

41:                                               ; preds = %35
  %42 = load i32, i32* %7, align 4
  %43 = load i32, i32* %8, align 4
  %44 = sext i32 %43 to i64
  %45 = getelementptr inbounds [100 x i32], [100 x i32]* %4, i64 0, i64 %44
  store i32 %42, i32* %45, align 4
  %46 = load i32, i32* %8, align 4
  %47 = add nsw i32 %46, 1
  store i32 %47, i32* %8, align 4
  br label %55

48:                                               ; preds = %35
  %49 = load i32, i32* %7, align 4
  %50 = load i32, i32* %9, align 4
  %51 = sext i32 %50 to i64
  %52 = getelementptr inbounds [100 x i32], [100 x i32]* %5, i64 0, i64 %51
  store i32 %49, i32* %52, align 4
  %53 = load i32, i32* %9, align 4
  %54 = add nsw i32 %53, 1
  store i32 %54, i32* %9, align 4
  br label %55

55:                                               ; preds = %48, %41
  br label %56

56:                                               ; preds = %55
  %57 = load i32, i32* %7, align 4
  %58 = add nsw i32 %57, 1
  store i32 %58, i32* %7, align 4
  br label %31

59:                                               ; preds = %31
  %60 = load i32, i32* %8, align 4
  %61 = icmp sge i32 %60, 2
  br i1 %61, label %62, label %166

62:                                               ; preds = %59
  store i32 0, i32* %7, align 4
  br label %63

63:                                               ; preds = %162, %62
  %64 = load i32, i32* %7, align 4
  %65 = load i32, i32* %8, align 4
  %66 = sub nsw i32 %65, 1
  %67 = icmp slt i32 %64, %66
  br i1 %67, label %68, label %165

68:                                               ; preds = %63
  %69 = load i32, i32* %8, align 4
  %70 = sub nsw i32 %69, 1
  store i32 %70, i32* %10, align 4
  br label %71

71:                                               ; preds = %158, %68
  %72 = load i32, i32* %10, align 4
  %73 = load i32, i32* %7, align 4
  %74 = icmp sgt i32 %72, %73
  br i1 %74, label %75, label %161

75:                                               ; preds = %71
  %76 = load i32, i32* %10, align 4
  %77 = sext i32 %76 to i64
  %78 = getelementptr inbounds [100 x i32], [100 x i32]* %4, i64 0, i64 %77
  %79 = load i32, i32* %78, align 4
  %80 = sext i32 %79 to i64
  %81 = getelementptr inbounds [100 x i32], [100 x i32]* %3, i64 0, i64 %80
  %82 = load i32, i32* %81, align 4
  %83 = load i32, i32* %10, align 4
  %84 = sub nsw i32 %83, 1
  %85 = sext i32 %84 to i64
  %86 = getelementptr inbounds [100 x i32], [100 x i32]* %4, i64 0, i64 %85
  %87 = load i32, i32* %86, align 4
  %88 = sext i32 %87 to i64
  %89 = getelementptr inbounds [100 x i32], [100 x i32]* %3, i64 0, i64 %88
  %90 = load i32, i32* %89, align 4
  %91 = icmp sgt i32 %82, %90
  br i1 %91, label %92, label %110

92:                                               ; preds = %75
  %93 = load i32, i32* %10, align 4
  %94 = sext i32 %93 to i64
  %95 = getelementptr inbounds [100 x i32], [100 x i32]* %4, i64 0, i64 %94
  %96 = load i32, i32* %95, align 4
  store i32 %96, i32* %11, align 4
  %97 = load i32, i32* %10, align 4
  %98 = sub nsw i32 %97, 1
  %99 = sext i32 %98 to i64
  %100 = getelementptr inbounds [100 x i32], [100 x i32]* %4, i64 0, i64 %99
  %101 = load i32, i32* %100, align 4
  %102 = load i32, i32* %10, align 4
  %103 = sext i32 %102 to i64
  %104 = getelementptr inbounds [100 x i32], [100 x i32]* %4, i64 0, i64 %103
  store i32 %101, i32* %104, align 4
  %105 = load i32, i32* %11, align 4
  %106 = load i32, i32* %10, align 4
  %107 = sub nsw i32 %106, 1
  %108 = sext i32 %107 to i64
  %109 = getelementptr inbounds [100 x i32], [100 x i32]* %4, i64 0, i64 %108
  store i32 %105, i32* %109, align 4
  br label %157

110:                                              ; preds = %75
  %111 = load i32, i32* %10, align 4
  %112 = sext i32 %111 to i64
  %113 = getelementptr inbounds [100 x i32], [100 x i32]* %4, i64 0, i64 %112
  %114 = load i32, i32* %113, align 4
  %115 = sext i32 %114 to i64
  %116 = getelementptr inbounds [100 x i32], [100 x i32]* %3, i64 0, i64 %115
  %117 = load i32, i32* %116, align 4
  %118 = load i32, i32* %10, align 4
  %119 = sub nsw i32 %118, 1
  %120 = sext i32 %119 to i64
  %121 = getelementptr inbounds [100 x i32], [100 x i32]* %4, i64 0, i64 %120
  %122 = load i32, i32* %121, align 4
  %123 = sext i32 %122 to i64
  %124 = getelementptr inbounds [100 x i32], [100 x i32]* %3, i64 0, i64 %123
  %125 = load i32, i32* %124, align 4
  %126 = icmp eq i32 %117, %125
  br i1 %126, label %127, label %156

127:                                              ; preds = %110
  %128 = load i32, i32* %10, align 4
  %129 = sext i32 %128 to i64
  %130 = getelementptr inbounds [100 x i32], [100 x i32]* %4, i64 0, i64 %129
  %131 = load i32, i32* %130, align 4
  %132 = load i32, i32* %10, align 4
  %133 = sub nsw i32 %132, 1
  %134 = sext i32 %133 to i64
  %135 = getelementptr inbounds [100 x i32], [100 x i32]* %4, i64 0, i64 %134
  %136 = load i32, i32* %135, align 4
  %137 = icmp slt i32 %131, %136
  br i1 %137, label %138, label %156

138:                                              ; preds = %127
  %139 = load i32, i32* %10, align 4
  %140 = sext i32 %139 to i64
  %141 = getelementptr inbounds [100 x i32], [100 x i32]* %4, i64 0, i64 %140
  %142 = load i32, i32* %141, align 4
  store i32 %142, i32* %11, align 4
  %143 = load i32, i32* %10, align 4
  %144 = sub nsw i32 %143, 1
  %145 = sext i32 %144 to i64
  %146 = getelementptr inbounds [100 x i32], [100 x i32]* %4, i64 0, i64 %145
  %147 = load i32, i32* %146, align 4
  %148 = load i32, i32* %10, align 4
  %149 = sext i32 %148 to i64
  %150 = getelementptr inbounds [100 x i32], [100 x i32]* %4, i64 0, i64 %149
  store i32 %147, i32* %150, align 4
  %151 = load i32, i32* %11, align 4
  %152 = load i32, i32* %10, align 4
  %153 = sub nsw i32 %152, 1
  %154 = sext i32 %153 to i64
  %155 = getelementptr inbounds [100 x i32], [100 x i32]* %4, i64 0, i64 %154
  store i32 %151, i32* %155, align 4
  br label %156

156:                                              ; preds = %138, %127, %110
  br label %157

157:                                              ; preds = %156, %92
  br label %158

158:                                              ; preds = %157
  %159 = load i32, i32* %10, align 4
  %160 = add nsw i32 %159, -1
  store i32 %160, i32* %10, align 4
  br label %71

161:                                              ; preds = %71
  br label %162

162:                                              ; preds = %161
  %163 = load i32, i32* %7, align 4
  %164 = add nsw i32 %163, 1
  store i32 %164, i32* %7, align 4
  br label %63

165:                                              ; preds = %63
  br label %166

166:                                              ; preds = %165, %59
  %167 = load i32, i32* %8, align 4
  %168 = icmp sge i32 %167, 1
  br i1 %168, label %169, label %187

169:                                              ; preds = %166
  store i32 0, i32* %7, align 4
  br label %170

170:                                              ; preds = %183, %169
  %171 = load i32, i32* %7, align 4
  %172 = load i32, i32* %8, align 4
  %173 = icmp slt i32 %171, %172
  br i1 %173, label %174, label %186

174:                                              ; preds = %170
  %175 = load i32, i32* %7, align 4
  %176 = sext i32 %175 to i64
  %177 = getelementptr inbounds [100 x i32], [100 x i32]* %4, i64 0, i64 %176
  %178 = load i32, i32* %177, align 4
  %179 = sext i32 %178 to i64
  %180 = getelementptr inbounds [100 x [20 x i8]], [100 x [20 x i8]]* %6, i64 0, i64 %179
  %181 = getelementptr inbounds [20 x i8], [20 x i8]* %180, i64 0, i64 0
  %182 = call i32 (i8*, ...) @printf(i8* getelementptr inbounds ([4 x i8], [4 x i8]* @.str.2, i64 0, i64 0), i8* %181)
  br label %183

183:                                              ; preds = %174
  %184 = load i32, i32* %7, align 4
  %185 = add nsw i32 %184, 1
  store i32 %185, i32* %7, align 4
  br label %170

186:                                              ; preds = %170
  br label %187

187:                                              ; preds = %186, %166
  %188 = load i32, i32* %9, align 4
  %189 = icmp sgt i32 %188, 0
  br i1 %189, label %190, label %208

190:                                              ; preds = %187
  store i32 0, i32* %7, align 4
  br label %191

191:                                              ; preds = %204, %190
  %192 = load i32, i32* %7, align 4
  %193 = load i32, i32* %9, align 4
  %194 = icmp slt i32 %192, %193
  br i1 %194, label %195, label %207

195:                                              ; preds = %191
  %196 = load i32, i32* %7, align 4
  %197 = sext i32 %196 to i64
  %198 = getelementptr inbounds [100 x i32], [100 x i32]* %5, i64 0, i64 %197
  %199 = load i32, i32* %198, align 4
  %200 = sext i32 %199 to i64
  %201 = getelementptr inbounds [100 x [20 x i8]], [100 x [20 x i8]]* %6, i64 0, i64 %200
  %202 = getelementptr inbounds [20 x i8], [20 x i8]* %201, i64 0, i64 0
  %203 = call i32 (i8*, ...) @printf(i8* getelementptr inbounds ([4 x i8], [4 x i8]* @.str.2, i64 0, i64 0), i8* %202)
  br label %204

204:                                              ; preds = %195
  %205 = load i32, i32* %7, align 4
  %206 = add nsw i32 %205, 1
  store i32 %206, i32* %7, align 4
  br label %191

207:                                              ; preds = %191
  br label %208

208:                                              ; preds = %207, %187
  ret i32 0
}

declare dso_local i32 @__isoc99_scanf(i8*, ...) #1

declare dso_local i32 @printf(i8*, ...) #1


!llvm.module.flags = !{!0}
!llvm.ident = !{!1}

!0 = !{i32 1, !"wchar_size", i32 4}
!1 = !{!"clang version 10.0.0-4ubuntu1 "}
